target datalayout = "e-m:e-p270:32:32-p271:32:32-p272:64:64-i64:64-i128:128-f80:128-n8:16:32:64-S128"
target triple = "x86_64-pc-linux-gnu"

%struct.strbuf = type { i64, i64, ptr }

@__const.fn_command_ancestry_fl.buf_payload = private unnamed_addr constant %struct.strbuf { i64 0, i64 0, ptr @strbuf_slopbuf }, align 8
@.str.12 = private unnamed_addr constant [14 x i8] c"cmd_ancestry \00", align 1
@.str.13 = private unnamed_addr constant [5 x i8] c" <- \00", align 1

; Function Attrs: inlinehint nounwind uwtable
define internal void @strbuf_addstr(ptr noundef %0, ptr noundef %1) #4 {
  %3 = alloca ptr, align 8
  %4 = alloca ptr, align 8
  store ptr %0, ptr %3, align 8, !tbaa !74
  store ptr %1, ptr %4, align 8, !tbaa !8
  %5 = load ptr, ptr %3, align 8, !tbaa !74
  %6 = load ptr, ptr %4, align 8, !tbaa !8
  %7 = load ptr, ptr %4, align 8, !tbaa !8
  %8 = call i64 @strlen(ptr noundef %7) #11
  call void @strbuf_add(ptr noundef %5, ptr noundef %6, i64 noundef %8)
  ret void
}

; Function Attrs: nounwind uwtable
define internal void @fn_command_ancestry_fl(ptr noundef %0, i32 noundef %1, ptr noundef %2) #0 {
  %4 = alloca ptr, align 8
  %5 = alloca i32, align 4
  %6 = alloca ptr, align 8
  %7 = alloca ptr, align 8
  %8 = alloca %struct.strbuf, align 8
  store ptr %0, ptr %4, align 8, !tbaa !8
  store i32 %1, ptr %5, align 4, !tbaa !4
  store ptr %2, ptr %6, align 8, !tbaa !14
  call void @llvm.lifetime.start.p0(i64 8, ptr %7) #9
  store ptr null, ptr %7, align 8, !tbaa !8
  call void @llvm.lifetime.start.p0(i64 24, ptr %8) #9
  call void @llvm.memcpy.p0.p0.i64(ptr align 8 %8, ptr align 8 @__const.fn_command_ancestry_fl.buf_payload, i64 24, i1 false)
  call void @strbuf_addstr(ptr noundef %8, ptr noundef @.str.12)
  br label %9

9:                                                ; preds = %23, %3
  %10 = load ptr, ptr %6, align 8, !tbaa !14
  %11 = getelementptr inbounds nuw ptr, ptr %10, i32 1
  store ptr %11, ptr %6, align 8, !tbaa !14
  %12 = load ptr, ptr %10, align 8, !tbaa !8
  store ptr %12, ptr %7, align 8, !tbaa !8
  %13 = icmp ne ptr %12, null
  br i1 %13, label %14, label %24

14:                                               ; preds = %9
  %15 = load ptr, ptr %7, align 8, !tbaa !8
  call void @strbuf_addstr(ptr noundef %8, ptr noundef %15)
  %16 = load ptr, ptr %6, align 8, !tbaa !14
  %17 = icmp ne ptr %16, null
  br i1 %17, label %18, label %23

18:                                               ; preds = %14
  %19 = load ptr, ptr %6, align 8, !tbaa !14
  %20 = load ptr, ptr %19, align 8, !tbaa !8
  %21 = icmp ne ptr %20, null
  br i1 %21, label %22, label %23

22:                                               ; preds = %18
  call void @strbuf_addstr(ptr noundef %8, ptr noundef @.str.13)
  br label %23

23:                                               ; preds = %22, %18, %14
  br label %9, !llvm.loop !20

24:                                               ; preds = %9
  %25 = load ptr, ptr %4, align 8, !tbaa !8
  %26 = load i32, ptr %5, align 4, !tbaa !4
  call void @normal_io_write_fl(ptr noundef %25, i32 noundef %26, ptr noundef %8)
  call void @strbuf_release(ptr noundef %8)
  call void @llvm.lifetime.end.p0(i64 24, ptr %8) #9
  call void @llvm.lifetime.end.p0(i64 8, ptr %7) #9
  ret void
}