; Function Attrs: nounwind uwtable
define internal void @fn_command_ancestry_fl(ptr noundef %0, i32 noundef %1, ptr noundef readonly captures(none) %2) #0 {
  %4 = alloca %struct.strbuf, align 8
  call void @llvm.lifetime.start.p0(i64 24, ptr nonnull %4) #7
  call void @llvm.memcpy.p0.p0.i64(ptr noundef nonnull align 8 dereferenceable(24) %4, ptr noundef nonnull align 8 dereferenceable(24) @__const.fn_counter.buf_payload, i64 24, i1 false)
  call void @strbuf_add(ptr noundef nonnull %4, ptr noundef nonnull @.str.12, i64 noundef 13) #7
  %5 = load ptr, ptr %2, align 8, !tbaa !16
  %.not7 = icmp eq ptr %5, null
  br i1 %.not7, label %._crit_edge, label %.lr.ph

.lr.ph:                                           ; preds = %3, %10
  %6 = phi ptr [ %.pre, %10 ], [ %5, %3 ]
  %.pn = phi ptr [ %7, %10 ], [ %2, %3 ]
  %7 = getelementptr inbounds nuw i8, ptr %.pn, i64 8
  %8 = call i64 @strlen(ptr noundef nonnull dereferenceable(1) %6) #8
  call void @strbuf_add(ptr noundef nonnull %4, ptr noundef nonnull %6, i64 noundef %8) #7
  %9 = load ptr, ptr %7, align 8, !tbaa !16
  %.not6 = icmp eq ptr %9, null
  br i1 %.not6, label %._crit_edge, label %10

10:                                               ; preds = %.lr.ph
  call void @strbuf_add(ptr noundef nonnull %4, ptr noundef nonnull @.str.13, i64 noundef 4) #7
  %.pre = load ptr, ptr %7, align 8, !tbaa !16
  %.not = icmp eq ptr %.pre, null
  br i1 %.not, label %._crit_edge, label %.lr.ph, !llvm.loop !17

._crit_edge:                                      ; preds = %.lr.ph, %10, %3
  call fastcc void @normal_io_write_fl(ptr noundef %0, i32 noundef %1, ptr noundef %4)
  call void @strbuf_release(ptr noundef nonnull %4) #7
  call void @llvm.lifetime.end.p0(i64 24, ptr nonnull %4) #7
  ret void
}